target datalayout = "e-m:e-p270:32:32-p271:32:32-p272:64:64-i64:64-i128:128-f80:128-n8:16:32:64-S128"
target triple = "x86_64-pc-linux-gnu"

%struct.DCADSPContext = type { ptr, ptr, [2 x ptr], ptr, [2 x ptr], ptr, ptr, [2 x ptr], ptr, ptr, ptr, ptr, ptr, ptr, ptr, ptr, ptr }

@.str = private unnamed_addr constant [30 x i8] c"Assertion %s failed at %s:%d\0A\00", align 1
@.str.1 = private unnamed_addr constant [101 x i8] c"((ch_mask & (DCA_SPEAKER_MASK_L | DCA_SPEAKER_MASK_R)) == (DCA_SPEAKER_MASK_L | DCA_SPEAKER_MASK_R))\00", align 1
@.str.2 = private unnamed_addr constant [20 x i8] c"libavcodec/dcadec.c\00", align 1
@ff_log2_tab = external constant [256 x i8], align 16

; Function Attrs: alwaysinline nounwind willreturn memory(none) uwtable
define internal i32 @av_popcount_c(i32 noundef %0) #3 {
  %2 = alloca i32, align 4
  store i32 %0, ptr %2, align 4, !tbaa !11
  %3 = load i32, ptr %2, align 4, !tbaa !11
  %4 = lshr i32 %3, 1
  %5 = and i32 %4, 1431655765
  %6 = load i32, ptr %2, align 4, !tbaa !11
  %7 = sub i32 %6, %5
  store i32 %7, ptr %2, align 4, !tbaa !11
  %8 = load i32, ptr %2, align 4, !tbaa !11
  %9 = and i32 %8, 858993459
  %10 = load i32, ptr %2, align 4, !tbaa !11
  %11 = lshr i32 %10, 2
  %12 = and i32 %11, 858993459
  %13 = add i32 %9, %12
  store i32 %13, ptr %2, align 4, !tbaa !11
  %14 = load i32, ptr %2, align 4, !tbaa !11
  %15 = load i32, ptr %2, align 4, !tbaa !11
  %16 = lshr i32 %15, 4
  %17 = add i32 %14, %16
  %18 = and i32 %17, 252645135
  store i32 %18, ptr %2, align 4, !tbaa !11
  %19 = load i32, ptr %2, align 4, !tbaa !11
  %20 = lshr i32 %19, 8
  %21 = load i32, ptr %2, align 4, !tbaa !11
  %22 = add i32 %21, %20
  store i32 %22, ptr %2, align 4, !tbaa !11
  %23 = load i32, ptr %2, align 4, !tbaa !11
  %24 = load i32, ptr %2, align 4, !tbaa !11
  %25 = lshr i32 %24, 16
  %26 = add i32 %23, %25
  %27 = and i32 %26, 63
  ret i32 %27
}

; Function Attrs: alwaysinline nounwind willreturn memory(none) uwtable
define internal i32 @ff_log2_c(i32 noundef %0) #3 {
  %2 = alloca i32, align 4
  %3 = alloca i32, align 4
  store i32 %0, ptr %2, align 4, !tbaa !11
  call void @llvm.lifetime.start.p0(i64 4, ptr %3) #8
  store i32 0, ptr %3, align 4, !tbaa !11
  %4 = load i32, ptr %2, align 4, !tbaa !11
  %5 = and i32 %4, -65536
  %6 = icmp ne i32 %5, 0
  br i1 %6, label %7, label %12

7:                                                ; preds = %1
  %8 = load i32, ptr %2, align 4, !tbaa !11
  %9 = lshr i32 %8, 16
  store i32 %9, ptr %2, align 4, !tbaa !11
  %10 = load i32, ptr %3, align 4, !tbaa !11
  %11 = add nsw i32 %10, 16
  store i32 %11, ptr %3, align 4, !tbaa !11
  br label %12

12:                                               ; preds = %7, %1
  %13 = load i32, ptr %2, align 4, !tbaa !11
  %14 = and i32 %13, 65280
  %15 = icmp ne i32 %14, 0
  br i1 %15, label %16, label %21

16:                                               ; preds = %12
  %17 = load i32, ptr %2, align 4, !tbaa !11
  %18 = lshr i32 %17, 8
  store i32 %18, ptr %2, align 4, !tbaa !11
  %19 = load i32, ptr %3, align 4, !tbaa !11
  %20 = add nsw i32 %19, 8
  store i32 %20, ptr %3, align 4, !tbaa !11
  br label %21

21:                                               ; preds = %16, %12
  %22 = load i32, ptr %2, align 4, !tbaa !11
  %23 = zext i32 %22 to i64
  %24 = getelementptr inbounds nuw [256 x i8], ptr @ff_log2_tab, i64 0, i64 %23
  %25 = load i8, ptr %24, align 1, !tbaa !53
  %26 = zext i8 %25 to i32
  %27 = load i32, ptr %3, align 4, !tbaa !11
  %28 = add nsw i32 %27, %26
  store i32 %28, ptr %3, align 4, !tbaa !11
  %29 = load i32, ptr %3, align 4, !tbaa !11
  call void @llvm.lifetime.end.p0(i64 4, ptr %3) #8
  ret i32 %29
}

; Function Attrs: nounwind uwtable
define void @ff_dca_downmix_to_stereo_fixed(ptr noundef %0, ptr noundef %1, ptr noundef %2, i32 noundef %3, i32 noundef %4) #0 {
  %6 = alloca ptr, align 8
  %7 = alloca ptr, align 8
  %8 = alloca ptr, align 8
  %9 = alloca i32, align 4
  %10 = alloca i32, align 4
  %11 = alloca i32, align 4
  %12 = alloca i32, align 4
  %13 = alloca i32, align 4
  %14 = alloca ptr, align 8
  store ptr %0, ptr %6, align 8, !tbaa !56
  store ptr %1, ptr %7, align 8, !tbaa !57
  store ptr %2, ptr %8, align 8, !tbaa !9
  store i32 %3, ptr %9, align 4, !tbaa !11
  store i32 %4, ptr %10, align 4, !tbaa !11
  call void @llvm.lifetime.start.p0(i64 4, ptr %11) #8
  call void @llvm.lifetime.start.p0(i64 4, ptr %12) #8
  call void @llvm.lifetime.start.p0(i64 4, ptr %13) #8
  %15 = load i32, ptr %10, align 4, !tbaa !11
  %16 = call i32 @ff_log2_c(i32 noundef %15) #9
  store i32 %16, ptr %13, align 4, !tbaa !11
  call void @llvm.lifetime.start.p0(i64 8, ptr %14) #8
  %17 = load ptr, ptr %8, align 8, !tbaa !9
  %18 = load i32, ptr %10, align 4, !tbaa !11
  %19 = call i32 @av_popcount_c(i32 noundef %18) #9
  %20 = sext i32 %19 to i64
  %21 = getelementptr inbounds i32, ptr %17, i64 %20
  store ptr %21, ptr %14, align 8, !tbaa !9
  br label %22

22:                                               ; preds = %5
  %23 = load i32, ptr %10, align 4, !tbaa !11
  %24 = and i32 %23, 6
  %25 = icmp eq i32 %24, 6
  br i1 %25, label %27, label %26

26:                                               ; preds = %22
  call void (ptr, i32, ptr, ...) @av_log(ptr noundef null, i32 noundef 0, ptr noundef @.str, ptr noundef @.str.1, ptr noundef @.str.2, i32 noundef 92)
  call void @abort() #10
  unreachable

27:                                               ; preds = %22
  br label %28

28:                                               ; preds = %27
  br label %29

29:                                               ; preds = %28
  %30 = load i32, ptr %10, align 4, !tbaa !11
  %31 = and i32 %30, 1
  store i32 %31, ptr %11, align 4, !tbaa !11
  %32 = load ptr, ptr %6, align 8, !tbaa !56
  %33 = getelementptr inbounds nuw %struct.DCADSPContext, ptr %32, i32 0, i32 12
  %34 = load ptr, ptr %33, align 8, !tbaa !59
  %35 = load ptr, ptr %7, align 8, !tbaa !57
  %36 = getelementptr inbounds ptr, ptr %35, i64 1
  %37 = load ptr, ptr %36, align 8, !tbaa !9
  %38 = load ptr, ptr %8, align 8, !tbaa !9
  %39 = load i32, ptr %11, align 4, !tbaa !11
  %40 = sext i32 %39 to i64
  %41 = getelementptr inbounds i32, ptr %38, i64 %40
  %42 = load i32, ptr %41, align 4, !tbaa !11
  %43 = load i32, ptr %9, align 4, !tbaa !11
  %44 = sext i32 %43 to i64
  call void %34(ptr noundef %37, i32 noundef %42, i64 noundef %44)
  %45 = load ptr, ptr %6, align 8, !tbaa !56
  %46 = getelementptr inbounds nuw %struct.DCADSPContext, ptr %45, i32 0, i32 12
  %47 = load ptr, ptr %46, align 8, !tbaa !59
  %48 = load ptr, ptr %7, align 8, !tbaa !57
  %49 = getelementptr inbounds ptr, ptr %48, i64 2
  %50 = load ptr, ptr %49, align 8, !tbaa !9
  %51 = load ptr, ptr %14, align 8, !tbaa !9
  %52 = load i32, ptr %11, align 4, !tbaa !11
  %53 = add nsw i32 %52, 1
  %54 = sext i32 %53 to i64
  %55 = getelementptr inbounds i32, ptr %51, i64 %54
  %56 = load i32, ptr %55, align 4, !tbaa !11
  %57 = load i32, ptr %9, align 4, !tbaa !11
  %58 = sext i32 %57 to i64
  call void %47(ptr noundef %50, i32 noundef %56, i64 noundef %58)
  store i32 0, ptr %12, align 4, !tbaa !11
  br label %59

59:                                               ; preds = %121, %29
  %60 = load i32, ptr %12, align 4, !tbaa !11
  %61 = load i32, ptr %13, align 4, !tbaa !11
  %62 = icmp sle i32 %60, %61
  br i1 %62, label %63, label %124

63:                                               ; preds = %59
  %64 = load i32, ptr %10, align 4, !tbaa !11
  %65 = load i32, ptr %12, align 4, !tbaa !11
  %66 = shl i32 1, %65
  %67 = and i32 %64, %66
  %68 = icmp ne i32 %67, 0
  br i1 %68, label %70, label %69

69:                                               ; preds = %63
  br label %121

70:                                               ; preds = %63
  %71 = load ptr, ptr %8, align 8, !tbaa !9
  %72 = load i32, ptr %71, align 4, !tbaa !11
  %73 = icmp ne i32 %72, 0
  br i1 %73, label %74, label %93

74:                                               ; preds = %70
  %75 = load i32, ptr %12, align 4, !tbaa !11
  %76 = icmp ne i32 %75, 1
  br i1 %76, label %77, label %93

77:                                               ; preds = %74
  %78 = load ptr, ptr %6, align 8, !tbaa !56
  %79 = getelementptr inbounds nuw %struct.DCADSPContext, ptr %78, i32 0, i32 11
  %80 = load ptr, ptr %79, align 8, !tbaa !60
  %81 = load ptr, ptr %7, align 8, !tbaa !57
  %82 = getelementptr inbounds ptr, ptr %81, i64 1
  %83 = load ptr, ptr %82, align 8, !tbaa !9
  %84 = load ptr, ptr %7, align 8, !tbaa !57
  %85 = load i32, ptr %12, align 4, !tbaa !11
  %86 = sext i32 %85 to i64
  %87 = getelementptr inbounds ptr, ptr %84, i64 %86
  %88 = load ptr, ptr %87, align 8, !tbaa !9
  %89 = load ptr, ptr %8, align 8, !tbaa !9
  %90 = load i32, ptr %89, align 4, !tbaa !11
  %91 = load i32, ptr %9, align 4, !tbaa !11
  %92 = sext i32 %91 to i64
  call void %80(ptr noundef %83, ptr noundef %88, i32 noundef %90, i64 noundef %92)
  br label %93

93:                                               ; preds = %77, %74, %70
  %94 = load ptr, ptr %14, align 8, !tbaa !9
  %95 = load i32, ptr %94, align 4, !tbaa !11
  %96 = icmp ne i32 %95, 0
  br i1 %96, label %97, label %116

97:                                               ; preds = %93
  %98 = load i32, ptr %12, align 4, !tbaa !11
  %99 = icmp ne i32 %98, 2
  br i1 %99, label %100, label %116

100:                                              ; preds = %97
  %101 = load ptr, ptr %6, align 8, !tbaa !56
  %102 = getelementptr inbounds nuw %struct.DCADSPContext, ptr %101, i32 0, i32 11
  %103 = load ptr, ptr %102, align 8, !tbaa !60
  %104 = load ptr, ptr %7, align 8, !tbaa !57
  %105 = getelementptr inbounds ptr, ptr %104, i64 2
  %106 = load ptr, ptr %105, align 8, !tbaa !9
  %107 = load ptr, ptr %7, align 8, !tbaa !57
  %108 = load i32, ptr %12, align 4, !tbaa !11
  %109 = sext i32 %108 to i64
  %110 = getelementptr inbounds ptr, ptr %107, i64 %109
  %111 = load ptr, ptr %110, align 8, !tbaa !9
  %112 = load ptr, ptr %14, align 8, !tbaa !9
  %113 = load i32, ptr %112, align 4, !tbaa !11
  %114 = load i32, ptr %9, align 4, !tbaa !11
  %115 = sext i32 %114 to i64
  call void %103(ptr noundef %106, ptr noundef %111, i32 noundef %113, i64 noundef %115)
  br label %116

116:                                              ; preds = %100, %97, %93
  %117 = load ptr, ptr %8, align 8, !tbaa !9
  %118 = getelementptr inbounds nuw i32, ptr %117, i32 1
  store ptr %118, ptr %8, align 8, !tbaa !9
  %119 = load ptr, ptr %14, align 8, !tbaa !9
  %120 = getelementptr inbounds nuw i32, ptr %119, i32 1
  store ptr %120, ptr %14, align 8, !tbaa !9
  br label %121

121:                                              ; preds = %116, %69
  %122 = load i32, ptr %12, align 4, !tbaa !11
  %123 = add nsw i32 %122, 1
  store i32 %123, ptr %12, align 4, !tbaa !11
  br label %59, !llvm.loop !61

124:                                              ; preds = %59
  call void @llvm.lifetime.end.p0(i64 8, ptr %14) #8
  call void @llvm.lifetime.end.p0(i64 4, ptr %13) #8
  call void @llvm.lifetime.end.p0(i64 4, ptr %12) #8
  call void @llvm.lifetime.end.p0(i64 4, ptr %11) #8
  ret void
}