; Function Attrs: nounwind uwtable
define void @ff_dca_downmix_to_stereo_fixed(ptr noundef readonly captures(none) %0, ptr noundef readonly captures(none) %1, ptr noundef readonly captures(none) %2, i32 noundef %3, i32 noundef %4) local_unnamed_addr #0 {
  %6 = and i32 %4, 6
  %7 = icmp eq i32 %6, 6
  br i1 %7, label %9, label %8

8:                                                ; preds = %5
  tail call void (ptr, i32, ptr, ...) @av_log(ptr noundef null, i32 noundef 0, ptr noundef nonnull @.str, ptr noundef nonnull @.str.1, ptr noundef nonnull @.str.2, i32 noundef 92) #7
  tail call void @abort() #8
  unreachable

9:                                                ; preds = %5
  %.not.i = icmp ult i32 %4, 65536
  %10 = lshr i32 %4, 16
  %spec.select.i = select i1 %.not.i, i32 %4, i32 %10
  %.not11.i = icmp samesign ult i32 %spec.select.i, 256
  %11 = lshr i32 %spec.select.i, 8
  %.110.i = select i1 %.not11.i, i32 %spec.select.i, i32 %11
  %12 = zext nneg i32 %.110.i to i64
  %13 = getelementptr inbounds nuw [256 x i8], ptr @ff_log2_tab, i64 0, i64 %12
  %14 = load i8, ptr %13, align 1, !tbaa !48
  %15 = zext i8 %14 to i32
  %spec.select12.i = select i1 %.not.i, i32 0, i32 16
  %16 = or disjoint i32 %spec.select12.i, 8
  %.1.i = select i1 %.not11.i, i32 %spec.select12.i, i32 %16
  %17 = lshr i32 %4, 1
  %18 = and i32 %17, 1431655765
  %19 = sub i32 %4, %18
  %20 = and i32 %19, 858993459
  %21 = lshr i32 %19, 2
  %22 = and i32 %21, 858993459
  %23 = add nuw nsw i32 %22, %20
  %24 = lshr i32 %23, 4
  %25 = add nuw nsw i32 %24, %23
  %26 = and i32 %25, 252645135
  %27 = lshr i32 %26, 8
  %28 = add nuw nsw i32 %27, %26
  %29 = lshr i32 %28, 16
  %30 = add nuw nsw i32 %29, %28
  %31 = and i32 %30, 63
  %32 = zext nneg i32 %31 to i64
  %33 = getelementptr inbounds nuw i32, ptr %2, i64 %32
  %34 = and i32 %4, 1
  %35 = getelementptr inbounds nuw i8, ptr %0, i64 120
  %36 = load ptr, ptr %35, align 8, !tbaa !51
  %37 = getelementptr inbounds nuw i8, ptr %1, i64 8
  %38 = load ptr, ptr %37, align 8, !tbaa !52
  %39 = zext nneg i32 %34 to i64
  %40 = getelementptr inbounds nuw i32, ptr %2, i64 %39
  %41 = load i32, ptr %40, align 4, !tbaa !43
  %42 = sext i32 %3 to i64
  tail call void %36(ptr noundef %38, i32 noundef %41, i64 noundef %42) #7
  %43 = load ptr, ptr %35, align 8, !tbaa !51
  %44 = getelementptr inbounds nuw i8, ptr %1, i64 16
  %45 = load ptr, ptr %44, align 8, !tbaa !52
  %46 = getelementptr inbounds nuw i32, ptr %33, i64 %39
  %47 = getelementptr inbounds nuw i8, ptr %46, i64 4
  %48 = load i32, ptr %47, align 4, !tbaa !43
  tail call void %43(ptr noundef %45, i32 noundef %48, i64 noundef %42) #7
  %49 = getelementptr inbounds nuw i8, ptr %0, i64 112
  %50 = add nuw nsw i32 %.1.i, %15
  %51 = add nuw nsw i32 %50, 1
  %wide.trip.count = zext nneg i32 %51 to i64
  br label %52

52:                                               ; preds = %9, %77
  %indvars.iv = phi i64 [ 0, %9 ], [ %indvars.iv.next, %77 ]
  %.049 = phi ptr [ %33, %9 ], [ %.1, %77 ]
  %.04048 = phi ptr [ %2, %9 ], [ %.141, %77 ]
  %53 = trunc nuw nsw i64 %indvars.iv to i32
  %54 = shl nuw i32 1, %53
  %55 = and i32 %54, %4
  %.not45 = icmp eq i32 %55, 0
  br i1 %.not45, label %77, label %56

56:                                               ; preds = %52
  %57 = load i32, ptr %.04048, align 4, !tbaa !43
  %58 = icmp ne i32 %57, 0
  %59 = icmp ne i64 %indvars.iv, 1
  %or.cond = and i1 %59, %58
  br i1 %or.cond, label %60, label %65

60:                                               ; preds = %56
  %61 = load ptr, ptr %49, align 8, !tbaa !53
  %62 = load ptr, ptr %37, align 8, !tbaa !52
  %63 = getelementptr inbounds nuw ptr, ptr %1, i64 %indvars.iv
  %64 = load ptr, ptr %63, align 8, !tbaa !52
  tail call void %61(ptr noundef %62, ptr noundef %64, i32 noundef %57, i64 noundef %42) #7
  br label %65

65:                                               ; preds = %60, %56
  %66 = load i32, ptr %.049, align 4, !tbaa !43
  %67 = icmp ne i32 %66, 0
  %68 = icmp ne i64 %indvars.iv, 2
  %or.cond3 = and i1 %68, %67
  br i1 %or.cond3, label %69, label %74

69:                                               ; preds = %65
  %70 = load ptr, ptr %49, align 8, !tbaa !53
  %71 = load ptr, ptr %44, align 8, !tbaa !52
  %72 = getelementptr inbounds nuw ptr, ptr %1, i64 %indvars.iv
  %73 = load ptr, ptr %72, align 8, !tbaa !52
  tail call void %70(ptr noundef %71, ptr noundef %73, i32 noundef %66, i64 noundef %42) #7
  br label %74

74:                                               ; preds = %69, %65
  %75 = getelementptr inbounds nuw i8, ptr %.04048, i64 4
  %76 = getelementptr inbounds nuw i8, ptr %.049, i64 4
  br label %77

77:                                               ; preds = %52, %74
  %.141 = phi ptr [ %75, %74 ], [ %.04048, %52 ]
  %.1 = phi ptr [ %76, %74 ], [ %.049, %52 ]
  %indvars.iv.next = add nuw nsw i64 %indvars.iv, 1
  %exitcond.not = icmp eq i64 %indvars.iv.next, %wide.trip.count
  br i1 %exitcond.not, label %78, label %52, !llvm.loop !54

78:                                               ; preds = %77
  ret void
}